ccopy_reg
_reconstructor
p0
(csklearn.pipeline
Pipeline
p1
c__builtin__
object
p2
Ntp3
Rp4
(dp5
S'steps'
p6
(lp7
(S'clf'
p8
g0
(csklearn.neighbors.classification
KNeighborsClassifier
p9
g2
Ntp10
Rp11
(dp12
S'n_neighbors'
p13
I1
sS'algorithm'
p14
S'ball_tree'
p15
sS'metric'
p16
S'minkowski'
p17
sS'metric_params'
p18
NsS'p'
p19
I2
sS'radius'
p20
NsS'leaf_size'
p21
I30
sS'_fit_method'
p22
NsS'weights'
p23
S'uniform'
p24
sS'_tree'
p25
NsS'_fit_X'
p26
Nsbtp27
asS'named_steps'
p28
(dp29
g8
g11
ssb.